target datalayout = "e-m:e-p270:32:32-p271:32:32-p272:64:64-i64:64-i128:128-f80:128-n8:16:32:64-S128"
target triple = "x86_64-pc-linux-gnu"

@ui_base_method = internal global ptr null, align 8

; Function Attrs: nounwind uwtable
define dso_local i32 @set_base_ui_method(ptr noundef %0) #0 {
  %2 = alloca ptr, align 8
  store ptr %0, ptr %2, align 8, !tbaa !4
  %3 = load ptr, ptr %2, align 8, !tbaa !4
  %4 = icmp eq ptr %3, null
  br i1 %4, label %5, label %7

5:                                                ; preds = %1
  %6 = call ptr @UI_null()
  store ptr %6, ptr %2, align 8, !tbaa !4
  br label %7

7:                                                ; preds = %5, %1
  %8 = load ptr, ptr %2, align 8, !tbaa !4
  store ptr %8, ptr @ui_base_method, align 8, !tbaa !4
  ret i32 1
}