; Function Attrs: nounwind uwtable
define dso_local noundef i32 @set_base_ui_method(ptr noundef %0) local_unnamed_addr #0 {
  %2 = icmp eq ptr %0, null
  br i1 %2, label %3, label %5

3:                                                ; preds = %1
  %4 = tail call ptr @UI_null() #5
  br label %5

5:                                                ; preds = %3, %1
  %.0 = phi ptr [ %4, %3 ], [ %0, %1 ]
  store ptr %.0, ptr @ui_base_method, align 8, !tbaa !4
  ret i32 1
}